(idcel
Dcel
p0
(dp1
S'hedges'
p2
(lp3
(idcel
Hedge
p4
(dp5
S'origin'
p6
(idcel
Vertex
p7
(dp8
S'y'
p9
I3
sS'x'
p10
I9
sS'hedgelist'
p11
(lp12
sbsS'angle'
p13
F2.356194490192345
sS'prevhedge'
p14
(idcel
Hedge
p15
(dp16
g6
(idcel
Vertex
p17
(dp18
g9
I8
sg10
I8
sg11
(lp19
(idcel
Hedge
p20
(dp21
g6
g17
sg13
F6.283185307179586
sg14
(idcel
Hedge
p22
(dp23
g6
(idcel
Vertex
p24
(dp25
g9
I3
sg10
I9
sg11
(lp26
(idcel
Hedge
p27
(dp28
g6
g24
sg13
F6.283185307179586
sg14
(idcel
Hedge
p29
(dp30
g6
(idcel
Vertex
p31
(dp32
g9
I2
sg10
I10
sg11
(lp33
g29
a(idcel
Hedge
p34
(dp35
g6
g31
sg13
F0.11065722117389662
sg14
(idcel
Hedge
p36
(dp37
g6
(idcel
Vertex
p38
(dp39
g9
I6
sg10
I6
sg11
(lp40
g36
a(idcel
Hedge
p41
(dp42
g6
g38
sg13
F0.7853981633974484
sg14
g29
sS'length'
p43
F7.0710678118654755
sS'face'
p44
(idcel
Face
p45
(dp46
S'wedge'
p47
(idcel
Hedge
p48
(dp49
g6
(idcel
Vertex
p50
(dp51
g9
I3
sg10
I9
sg11
(lp52
sbsg13
F5.497787143782138
sg14
(idcel
Hedge
p53
(dp54
g6
(idcel
Vertex
p55
(dp56
g9
I3
sg10
I3
sg11
(lp57
(idcel
Hedge
p58
(dp59
g6
g55
sg13
F4.514993420534809
sg14
g41
sg43
F5.0990195135927845
sg44
(idcel
Face
p60
(dp61
g47
g4
sS'InnerComponents'
p62
NsS'data'
p63
NsS'external'
p64
I01
sbsS'twin'
p65
(idcel
Hedge
p66
(dp67
g6
(idcel
Vertex
p68
(dp69
g9
I8
sg10
I4
sg11
(lp70
(idcel
Hedge
p71
(dp72
g6
g68
sg13
F3.141592653589793
sg14
g58
sg43
F4.0
sg44
g60
sg65
g20
sS'nexthedge'
p73
g15
sbag66
asbsg13
F1.3734007669450157
sg14
g20
sg43
F5.0990195135927845
sg44
(idcel
Face
p74
(dp75
g47
(idcel
Hedge
p76
(dp77
g6
(idcel
Vertex
p78
(dp79
g9
I3
sg10
I3
sg11
(lp80
sbsg13
F3.9269908169872414
sg14
g66
sg43
F4.242640687119285
sg44
g74
sg65
g41
sg73
g36
sbsg62
Nsg63
Nsg64
I00
sbsg65
g58
sg73
g76
sbsg73
g71
sbag53
a(idcel
Hedge
p81
(dp82
g6
(idcel
Vertex
p83
(dp84
g9
I3
sg10
I3
sg11
(lp85
sbsg13
F0.7853981633974484
sg14
g27
sg43
F2.8284271247461903
sg44
(idcel
Face
p86
(dp87
g47
g81
sg62
Nsg63
Nsg64
I00
sbsg65
(idcel
Hedge
p88
(dp89
g6
(idcel
Vertex
p90
(dp91
g9
I1
sg10
I1
sg11
(lp92
g88
a(idcel
Hedge
p93
(dp94
g6
g90
sg13
F3.2522498747636894
sg14
g41
sg43
F9.055385138137417
sg44
g86
sg65
g34
sg73
g29
sbasbsg13
F3.9269908169872414
sg14
g34
sg43
F7.0710678118654755
sg44
g60
sg65
g81
sg73
g58
sbsg73
g93
sbag76
asbsg13
F3.141592653589793
sg14
g41
sg43
F6.0
sg44
g45
sg65
g27
sg73
g48
sbsg43
F4.242640687119285
sg44
g45
sg65
g36
sg73
g41
sbsg62
Nsg63
Nsg64
I00
sbsg65
g76
sg73
g53
sbasbsg13
F2.356194490192345
sg14
g88
sg43
F5.656854249492381
sg44
g74
sg65
g48
sg73
g22
sbsg43
F9.055385138137417
sg44
g60
sg65
g93
sg73
g88
sbasbsg13
F5.497787143782138
sg14
g93
sg43
F5.656854249492381
sg44
g86
sg65
g4
sg73
g27
sbsg43
F6.0
sg44
g86
sg65
g53
sg73
g81
sbag22
ag48
ag4
asbsg13
F4.90978454023457
sg14
g29
sg43
F5.0990195135927845
sg44
g74
sg65
g15
sg73
g20
sbsg43
F4.0
sg44
g74
sg65
g71
sg73
g66
sbag15
asbsg13
F1.7681918866447774
sg14
g71
sg43
F5.0990195135927845
sg44
g60
sg65
g22
sg73
g4
sbsg43
F1.4142135623730951
sg44
g60
sg65
g29
sg73
g34
sbag34
ag88
ag58
ag71
ag15
ag48
ag41
ag53
ag76
ag36
ag22
ag20
ag66
ag81
ag93
ag29
ag27
asS'el'
p95
(lp96
sS'vl'
p97
(lp98
sS'vertices'
p99
(lp100
g55
ag24
ag17
ag68
ag90
ag38
ag31
asS'faces'
p101
(lp102
g60
ag45
ag74
ag86
asb.